target datalayout = "e-m:e-p270:32:32-p271:32:32-p272:64:64-i64:64-i128:128-f80:128-n8:16:32:64-S128"
target triple = "x86_64-pc-linux-gnu"

%"struct.std::_Rb_tree_header" = type { %"struct.std::_Rb_tree_node_base", i64 }
%"struct.std::_Rb_tree_node_base" = type { i32, ptr, ptr, ptr }
%"class.std::__cxx11::basic_string" = type { %"struct.std::__cxx11::basic_string<char>::_Alloc_hider", i64, %union.anon }
%"struct.std::__cxx11::basic_string<char>::_Alloc_hider" = type { ptr }
%union.anon = type { i64, [8 x i8] }
%"struct.Yosys::AST::AstNode" = type <{ i32, i32, %"class.std::vector", %"class.std::map", %"class.std::__cxx11::basic_string", %"class.std::vector.6", i8, i8, i8, i8, i8, i8, i8, i8, i8, i8, i8, i8, i8, [3 x i8], i32, i32, i32, i32, double, i8, [7 x i8], %"class.std::vector.11", i32, [4 x i8], ptr, i8, i8, [6 x i8], %"class.std::__cxx11::basic_string", %"struct.Yosys::AST::AstSrcLocType", i8, i8, i8, i8, [4 x i8] }>
%"class.std::vector" = type { %"struct.std::_Vector_base" }
%"struct.std::_Vector_base" = type { %"struct.std::_Vector_base<Yosys::AST::AstNode *, std::allocator<Yosys::AST::AstNode *>>::_Vector_impl" }
%"struct.std::_Vector_base<Yosys::AST::AstNode *, std::allocator<Yosys::AST::AstNode *>>::_Vector_impl" = type { %"struct.std::_Vector_base<Yosys::AST::AstNode *, std::allocator<Yosys::AST::AstNode *>>::_Vector_impl_data" }
%"struct.std::_Vector_base<Yosys::AST::AstNode *, std::allocator<Yosys::AST::AstNode *>>::_Vector_impl_data" = type { ptr, ptr, ptr }
%"class.std::map" = type { %"class.std::_Rb_tree" }
%"class.std::_Rb_tree" = type { %"struct.std::_Rb_tree<Yosys::RTLIL::IdString, std::pair<const Yosys::RTLIL::IdString, Yosys::AST::AstNode *>, std::_Select1st<std::pair<const Yosys::RTLIL::IdString, Yosys::AST::AstNode *>>, std::less<Yosys::RTLIL::IdString>>::_Rb_tree_impl" }
%"struct.std::_Rb_tree<Yosys::RTLIL::IdString, std::pair<const Yosys::RTLIL::IdString, Yosys::AST::AstNode *>, std::_Select1st<std::pair<const Yosys::RTLIL::IdString, Yosys::AST::AstNode *>>, std::less<Yosys::RTLIL::IdString>>::_Rb_tree_impl" = type { [8 x i8], %"struct.std::_Rb_tree_header" }
%"class.std::vector.6" = type { %"struct.std::_Vector_base.7" }
%"struct.std::_Vector_base.7" = type { %"struct.std::_Vector_base<Yosys::RTLIL::State, std::allocator<Yosys::RTLIL::State>>::_Vector_impl" }
%"struct.std::_Vector_base<Yosys::RTLIL::State, std::allocator<Yosys::RTLIL::State>>::_Vector_impl" = type { %"struct.std::_Vector_base<Yosys::RTLIL::State, std::allocator<Yosys::RTLIL::State>>::_Vector_impl_data" }
%"struct.std::_Vector_base<Yosys::RTLIL::State, std::allocator<Yosys::RTLIL::State>>::_Vector_impl_data" = type { ptr, ptr, ptr }
%"class.std::vector.11" = type { %"struct.std::_Vector_base.12" }
%"struct.std::_Vector_base.12" = type { %"struct.std::_Vector_base<Yosys::AST::AstNode::dimension_t, std::allocator<Yosys::AST::AstNode::dimension_t>>::_Vector_impl" }
%"struct.std::_Vector_base<Yosys::AST::AstNode::dimension_t, std::allocator<Yosys::AST::AstNode::dimension_t>>::_Vector_impl" = type { %"struct.std::_Vector_base<Yosys::AST::AstNode::dimension_t, std::allocator<Yosys::AST::AstNode::dimension_t>>::_Vector_impl_data" }
%"struct.std::_Vector_base<Yosys::AST::AstNode::dimension_t, std::allocator<Yosys::AST::AstNode::dimension_t>>::_Vector_impl_data" = type { ptr, ptr, ptr }
%"struct.Yosys::AST::AstSrcLocType" = type { i32, i32, i32, i32 }

; Function Attrs: inlinehint mustprogress nounwind uwtable
define linkonce_odr noundef nonnull align 4 dereferenceable(4) ptr @_ZSt3minIiERKT_S2_S2_(ptr noundef nonnull align 4 dereferenceable(4) %0, ptr noundef nonnull align 4 dereferenceable(4) %1) #7 comdat {
  %3 = alloca ptr, align 8
  %4 = alloca ptr, align 8
  %5 = alloca ptr, align 8
  store ptr %0, ptr %4, align 8, !tbaa !327
  store ptr %1, ptr %5, align 8, !tbaa !327
  %6 = load ptr, ptr %5, align 8, !tbaa !327
  %7 = load i32, ptr %6, align 4, !tbaa !74
  %8 = load ptr, ptr %4, align 8, !tbaa !327
  %9 = load i32, ptr %8, align 4, !tbaa !74
  %10 = icmp slt i32 %7, %9
  br i1 %10, label %11, label %13

11:                                               ; preds = %2
  %12 = load ptr, ptr %5, align 8, !tbaa !327
  store ptr %12, ptr %3, align 8
  br label %15

13:                                               ; preds = %2
  %14 = load ptr, ptr %4, align 8, !tbaa !327
  store ptr %14, ptr %3, align 8
  br label %15

15:                                               ; preds = %13, %11
  %16 = load ptr, ptr %3, align 8
  ret ptr %16
}

; Function Attrs: mustprogress nounwind uwtable
define linkonce_odr noundef nonnull align 8 dereferenceable(8) ptr @_ZNSt6vectorIPN5Yosys3AST7AstNodeESaIS3_EEixEm(ptr noundef nonnull align 8 dereferenceable(24) %0, i64 noundef %1) #6 comdat align 2 {
  %3 = alloca ptr, align 8
  %4 = alloca i64, align 8
  store ptr %0, ptr %3, align 8, !tbaa !52
  store i64 %1, ptr %4, align 8, !tbaa !67
  %5 = load ptr, ptr %3, align 8
  %6 = getelementptr inbounds nuw %"struct.std::_Vector_base", ptr %5, i32 0, i32 0
  %7 = getelementptr inbounds nuw %"struct.std::_Vector_base<Yosys::AST::AstNode *, std::allocator<Yosys::AST::AstNode *>>::_Vector_impl_data", ptr %6, i32 0, i32 0
  %8 = load ptr, ptr %7, align 8, !tbaa !66
  %9 = load i64, ptr %4, align 8, !tbaa !67
  %10 = getelementptr inbounds nuw ptr, ptr %8, i64 %9
  ret ptr %10
}

; Function Attrs: mustprogress uwtable
define void @_ZN5Yosys3AST7AstNode7meminfoERiS2_S2_(ptr noundef nonnull align 8 dereferenceable(284) %0, ptr noundef nonnull align 4 dereferenceable(4) %1, ptr noundef nonnull align 4 dereferenceable(4) %2, ptr noundef nonnull align 4 dereferenceable(4) %3) #4 align 2 {
  %5 = alloca ptr, align 8
  %6 = alloca ptr, align 8
  %7 = alloca ptr, align 8
  %8 = alloca ptr, align 8
  store ptr %0, ptr %5, align 8, !tbaa !6
  store ptr %1, ptr %6, align 8, !tbaa !327
  store ptr %2, ptr %7, align 8, !tbaa !327
  store ptr %3, ptr %8, align 8, !tbaa !327
  %9 = load ptr, ptr %5, align 8
  br label %10

10:                                               ; preds = %4
  br label %11

11:                                               ; preds = %10
  %12 = getelementptr inbounds nuw %"struct.Yosys::AST::AstNode", ptr %9, i32 0, i32 2
  %13 = call noundef nonnull align 8 dereferenceable(8) ptr @_ZNSt6vectorIPN5Yosys3AST7AstNodeESaIS3_EEixEm(ptr noundef nonnull align 8 dereferenceable(24) %12, i64 noundef 0) #3
  %14 = load ptr, ptr %13, align 8, !tbaa !6
  %15 = getelementptr inbounds nuw %"struct.Yosys::AST::AstNode", ptr %14, i32 0, i32 21
  %16 = load i32, ptr %15, align 4, !tbaa !116
  %17 = getelementptr inbounds nuw %"struct.Yosys::AST::AstNode", ptr %9, i32 0, i32 2
  %18 = call noundef nonnull align 8 dereferenceable(8) ptr @_ZNSt6vectorIPN5Yosys3AST7AstNodeESaIS3_EEixEm(ptr noundef nonnull align 8 dereferenceable(24) %17, i64 noundef 0) #3
  %19 = load ptr, ptr %18, align 8, !tbaa !6
  %20 = getelementptr inbounds nuw %"struct.Yosys::AST::AstNode", ptr %19, i32 0, i32 22
  %21 = load i32, ptr %20, align 8, !tbaa !117
  %22 = sub nsw i32 %16, %21
  %23 = add nsw i32 %22, 1
  %24 = load ptr, ptr %6, align 8, !tbaa !327
  store i32 %23, ptr %24, align 4, !tbaa !74
  %25 = getelementptr inbounds nuw %"struct.Yosys::AST::AstNode", ptr %9, i32 0, i32 2
  %26 = call noundef nonnull align 8 dereferenceable(8) ptr @_ZNSt6vectorIPN5Yosys3AST7AstNodeESaIS3_EEixEm(ptr noundef nonnull align 8 dereferenceable(24) %25, i64 noundef 1) #3
  %27 = load ptr, ptr %26, align 8, !tbaa !6
  %28 = getelementptr inbounds nuw %"struct.Yosys::AST::AstNode", ptr %27, i32 0, i32 21
  %29 = load i32, ptr %28, align 4, !tbaa !116
  %30 = getelementptr inbounds nuw %"struct.Yosys::AST::AstNode", ptr %9, i32 0, i32 2
  %31 = call noundef nonnull align 8 dereferenceable(8) ptr @_ZNSt6vectorIPN5Yosys3AST7AstNodeESaIS3_EEixEm(ptr noundef nonnull align 8 dereferenceable(24) %30, i64 noundef 1) #3
  %32 = load ptr, ptr %31, align 8, !tbaa !6
  %33 = getelementptr inbounds nuw %"struct.Yosys::AST::AstNode", ptr %32, i32 0, i32 22
  %34 = load i32, ptr %33, align 8, !tbaa !117
  %35 = sub nsw i32 %29, %34
  %36 = load ptr, ptr %7, align 8, !tbaa !327
  store i32 %35, ptr %36, align 4, !tbaa !74
  %37 = load ptr, ptr %7, align 8, !tbaa !327
  %38 = load i32, ptr %37, align 4, !tbaa !74
  %39 = icmp slt i32 %38, 0
  br i1 %39, label %40, label %44

40:                                               ; preds = %11
  %41 = load ptr, ptr %7, align 8, !tbaa !327
  %42 = load i32, ptr %41, align 4, !tbaa !74
  %43 = mul nsw i32 %42, -1
  store i32 %43, ptr %41, align 4, !tbaa !74
  br label %44

44:                                               ; preds = %40, %11
  %45 = getelementptr inbounds nuw %"struct.Yosys::AST::AstNode", ptr %9, i32 0, i32 2
  %46 = call noundef nonnull align 8 dereferenceable(8) ptr @_ZNSt6vectorIPN5Yosys3AST7AstNodeESaIS3_EEixEm(ptr noundef nonnull align 8 dereferenceable(24) %45, i64 noundef 1) #3
  %47 = load ptr, ptr %46, align 8, !tbaa !6
  %48 = getelementptr inbounds nuw %"struct.Yosys::AST::AstNode", ptr %47, i32 0, i32 21
  %49 = getelementptr inbounds nuw %"struct.Yosys::AST::AstNode", ptr %9, i32 0, i32 2
  %50 = call noundef nonnull align 8 dereferenceable(8) ptr @_ZNSt6vectorIPN5Yosys3AST7AstNodeESaIS3_EEixEm(ptr noundef nonnull align 8 dereferenceable(24) %49, i64 noundef 1) #3
  %51 = load ptr, ptr %50, align 8, !tbaa !6
  %52 = getelementptr inbounds nuw %"struct.Yosys::AST::AstNode", ptr %51, i32 0, i32 22
  %53 = call noundef nonnull align 4 dereferenceable(4) ptr @_ZSt3minIiERKT_S2_S2_(ptr noundef nonnull align 4 dereferenceable(4) %48, ptr noundef nonnull align 4 dereferenceable(4) %52)
  %54 = load i32, ptr %53, align 4, !tbaa !74
  %55 = add nsw i32 %54, 1
  %56 = load ptr, ptr %7, align 8, !tbaa !327
  %57 = load i32, ptr %56, align 4, !tbaa !74
  %58 = add nsw i32 %57, %55
  store i32 %58, ptr %56, align 4, !tbaa !74
  %59 = load ptr, ptr %8, align 8, !tbaa !327
  store i32 1, ptr %59, align 4, !tbaa !74
  br label %60

60:                                               ; preds = %67, %44
  %61 = load ptr, ptr %8, align 8, !tbaa !327
  %62 = load i32, ptr %61, align 4, !tbaa !74
  %63 = shl i32 1, %62
  %64 = load ptr, ptr %7, align 8, !tbaa !327
  %65 = load i32, ptr %64, align 4, !tbaa !74
  %66 = icmp slt i32 %63, %65
  br i1 %66, label %67, label %71

67:                                               ; preds = %60
  %68 = load ptr, ptr %8, align 8, !tbaa !327
  %69 = load i32, ptr %68, align 4, !tbaa !74
  %70 = add nsw i32 %69, 1
  store i32 %70, ptr %68, align 4, !tbaa !74
  br label %60, !llvm.loop !380

71:                                               ; preds = %60
  ret void
}