; Function Attrs: mustprogress nofree norecurse nosync nounwind memory(read, argmem: readwrite, inaccessiblemem: none) uwtable
define void @_ZN5Yosys3AST7AstNode7meminfoERiS2_S2_(ptr noundef nonnull readonly align 8 captures(none) dereferenceable(284) %0, ptr noundef nonnull writeonly align 4 captures(none) dereferenceable(4) initializes((0, 4)) %1, ptr noundef nonnull align 4 captures(none) dereferenceable(4) initializes((0, 4)) %2, ptr noundef nonnull writeonly align 4 captures(none) dereferenceable(4) initializes((0, 4)) %3) local_unnamed_addr #14 align 2 {
  %5 = getelementptr inbounds nuw i8, ptr %0, i64 8
  %6 = load ptr, ptr %5, align 8, !tbaa !53
  %7 = load ptr, ptr %6, align 8, !tbaa !51
  %8 = getelementptr inbounds nuw i8, ptr %7, i64 156
  %9 = load i32, ptr %8, align 4, !tbaa !124
  %10 = getelementptr inbounds nuw i8, ptr %7, i64 160
  %11 = load i32, ptr %10, align 8, !tbaa !125
  %12 = add i32 %9, 1
  %13 = sub i32 %12, %11
  store i32 %13, ptr %1, align 4, !tbaa !61
  %14 = getelementptr inbounds nuw i8, ptr %6, i64 8
  %15 = load ptr, ptr %14, align 8, !tbaa !51
  %16 = getelementptr inbounds nuw i8, ptr %15, i64 156
  %17 = load i32, ptr %16, align 4, !tbaa !124
  %18 = getelementptr inbounds nuw i8, ptr %15, i64 160
  %19 = load i32, ptr %18, align 8, !tbaa !125
  %20 = sub nsw i32 %17, %19
  %spec.select = tail call i32 @llvm.abs.i32(i32 %20, i1 true)
  store i32 %spec.select, ptr %2, align 4, !tbaa !61
  %21 = load i32, ptr %18, align 4, !tbaa !61
  %22 = load i32, ptr %16, align 4, !tbaa !61
  %23 = tail call i32 @llvm.smin.i32(i32 %21, i32 %22)
  %24 = add nuw i32 %spec.select, 1
  %25 = add i32 %24, %23
  store i32 %25, ptr %2, align 4, !tbaa !61
  br label %26

26:                                               ; preds = %26, %4
  %storemerge10 = phi i32 [ 1, %4 ], [ %30, %26 ]
  store i32 %storemerge10, ptr %3, align 4, !tbaa !61
  %27 = shl nuw i32 1, %storemerge10
  %28 = load i32, ptr %2, align 4, !tbaa !61
  %29 = icmp slt i32 %27, %28
  %30 = add nuw nsw i32 %storemerge10, 1
  br i1 %29, label %26, label %31, !llvm.loop !361

31:                                               ; preds = %26
  ret void
}